target datalayout = "e-m:e-p270:32:32-p271:32:32-p272:64:64-i64:64-i128:128-f80:128-n8:16:32:64-S128"
target triple = "x86_64-pc-linux-gnu"

%"class.Ipopt::DenseSymMatrix" = type <{ %"class.Ipopt::SymMatrix", ptr, ptr, i8, [7 x i8] }>
%"class.Ipopt::SymMatrix" = type { %"class.Ipopt::Matrix.base", ptr }
%"class.Ipopt::Matrix.base" = type <{ %"class.Ipopt::TaggedObject", %"class.Ipopt::SmartPtr", i32, i8 }>
%"class.Ipopt::TaggedObject" = type { %"class.Ipopt::ReferencedObject.base", %"class.Ipopt::Subject", i32, i32 }
%"class.Ipopt::ReferencedObject.base" = type <{ ptr, i32 }>
%"class.Ipopt::Subject" = type { ptr, %"class.std::vector" }
%"class.std::vector" = type { %"struct.std::_Vector_base" }
%"struct.std::_Vector_base" = type { %"struct.std::_Vector_base<Ipopt::Observer *, std::allocator<Ipopt::Observer *>>::_Vector_impl" }
%"struct.std::_Vector_base<Ipopt::Observer *, std::allocator<Ipopt::Observer *>>::_Vector_impl" = type { %"struct.std::_Vector_base<Ipopt::Observer *, std::allocator<Ipopt::Observer *>>::_Vector_impl_data" }
%"struct.std::_Vector_base<Ipopt::Observer *, std::allocator<Ipopt::Observer *>>::_Vector_impl_data" = type { ptr, ptr, ptr }
%"class.Ipopt::SmartPtr" = type { ptr }
%"class.Ipopt::Matrix" = type <{ %"class.Ipopt::TaggedObject", %"class.Ipopt::SmartPtr", i32, i8, [3 x i8] }>
%"class.Ipopt::MatrixSpace" = type { %"class.Ipopt::ReferencedObject.base", i32, i32, [4 x i8] }
%"class.std::__cxx11::basic_string" = type { %"struct.std::__cxx11::basic_string<char>::_Alloc_hider", i64, %union.anon }
%"struct.std::__cxx11::basic_string<char>::_Alloc_hider" = type { ptr }
%union.anon = type { i64, [8 x i8] }

@.str = private unnamed_addr constant [2 x i8] c"\0A\00", align 1
@.str.1 = private unnamed_addr constant [77 x i8] c"%sDenseSymMatrix \22%s\22 of dimension %d (only lower triangular part printed):\0A\00", align 1
@.str.2 = private unnamed_addr constant [23 x i8] c"%s%s[%5d,%5d]=%23.16e\0A\00", align 1
@.str.3 = private unnamed_addr constant [42 x i8] c"The matrix has not yet been initialized!\0A\00", align 1

; Function Attrs: mustprogress nounwind uwtable
define linkonce_odr noundef i32 @_ZNK5Ipopt11MatrixSpace5NRowsEv(ptr noundef nonnull align 8 dereferenceable(20) %0) #5 comdat align 2 {
  %2 = alloca ptr, align 8
  store ptr %0, ptr %2, align 8, !tbaa !165
  %3 = load ptr, ptr %2, align 8
  %4 = getelementptr inbounds nuw %"class.Ipopt::MatrixSpace", ptr %3, i32 0, i32 1
  %5 = load i32, ptr %4, align 4, !tbaa !175
  ret i32 %5
}

; Function Attrs: mustprogress nounwind uwtable
define linkonce_odr noundef i32 @_ZNK5Ipopt11MatrixSpace5NColsEv(ptr noundef nonnull align 8 dereferenceable(20) %0) #5 comdat align 2 {
  %2 = alloca ptr, align 8
  store ptr %0, ptr %2, align 8, !tbaa !165
  %3 = load ptr, ptr %2, align 8
  %4 = getelementptr inbounds nuw %"class.Ipopt::MatrixSpace", ptr %3, i32 0, i32 2
  %5 = load i32, ptr %4, align 8, !tbaa !173
  ret i32 %5
}

; Function Attrs: mustprogress nounwind uwtable
define linkonce_odr noundef ptr @_ZNK5Ipopt8SmartPtrIKNS_11MatrixSpaceEEptEv(ptr noundef nonnull align 8 dereferenceable(8) %0) #5 comdat align 2 {
  %2 = alloca ptr, align 8
  store ptr %0, ptr %2, align 8, !tbaa !105
  %3 = load ptr, ptr %2, align 8
  %4 = getelementptr inbounds nuw %"class.Ipopt::SmartPtr", ptr %3, i32 0, i32 0
  %5 = load ptr, ptr %4, align 8, !tbaa !107
  ret ptr %5
}

; Function Attrs: mustprogress nounwind uwtable
define linkonce_odr noundef i32 @_ZNK5Ipopt14SymMatrixSpace3DimEv(ptr noundef nonnull align 8 dereferenceable(20) %0) #5 comdat align 2 {
  %2 = alloca ptr, align 8
  store ptr %0, ptr %2, align 8, !tbaa !35
  %3 = load ptr, ptr %2, align 8
  %4 = call noundef i32 @_ZNK5Ipopt11MatrixSpace5NRowsEv(ptr noundef nonnull align 8 dereferenceable(20) %3)
  ret i32 %4
}

; Function Attrs: noinline noreturn nounwind uwtable
define linkonce_odr hidden void @__clang_call_terminate(ptr noundef %0) #10 comdat {
  %2 = call ptr @__cxa_begin_catch(ptr %0) #17
  call void @_ZSt9terminatev() #19
  unreachable
}

; Function Attrs: mustprogress nounwind uwtable
define available_externally noundef ptr @_ZNKSt7__cxx1112basic_stringIcSt11char_traitsIcESaIcEE7_M_dataEv(ptr noundef nonnull align 8 dereferenceable(32) %0) #5 align 2 {
  %2 = alloca ptr, align 8
  store ptr %0, ptr %2, align 8, !tbaa !99
  %3 = load ptr, ptr %2, align 8
  %4 = getelementptr inbounds nuw %"class.std::__cxx11::basic_string", ptr %3, i32 0, i32 0
  %5 = getelementptr inbounds nuw %"struct.std::__cxx11::basic_string<char>::_Alloc_hider", ptr %4, i32 0, i32 0
  %6 = load ptr, ptr %5, align 8, !tbaa !351
  ret ptr %6
}

; Function Attrs: inlinehint mustprogress uwtable
define linkonce_odr noundef i32 @_ZNK5Ipopt6Matrix5NRowsEv(ptr noundef nonnull align 8 dereferenceable(69) %0) #2 comdat align 2 {
  %2 = alloca ptr, align 8
  store ptr %0, ptr %2, align 8, !tbaa !37
  %3 = load ptr, ptr %2, align 8
  %4 = getelementptr inbounds nuw %"class.Ipopt::Matrix", ptr %3, i32 0, i32 1
  %5 = call noundef ptr @_ZNK5Ipopt8SmartPtrIKNS_11MatrixSpaceEEptEv(ptr noundef nonnull align 8 dereferenceable(8) %4)
  %6 = call noundef i32 @_ZNK5Ipopt11MatrixSpace5NRowsEv(ptr noundef nonnull align 8 dereferenceable(20) %5)
  ret i32 %6
}

; Function Attrs: inlinehint mustprogress uwtable
define linkonce_odr noundef i32 @_ZNK5Ipopt6Matrix5NColsEv(ptr noundef nonnull align 8 dereferenceable(69) %0) #2 comdat align 2 {
  %2 = alloca ptr, align 8
  store ptr %0, ptr %2, align 8, !tbaa !37
  %3 = load ptr, ptr %2, align 8
  %4 = getelementptr inbounds nuw %"class.Ipopt::Matrix", ptr %3, i32 0, i32 1
  %5 = call noundef ptr @_ZNK5Ipopt8SmartPtrIKNS_11MatrixSpaceEEptEv(ptr noundef nonnull align 8 dereferenceable(8) %4)
  %6 = call noundef i32 @_ZNK5Ipopt11MatrixSpace5NColsEv(ptr noundef nonnull align 8 dereferenceable(20) %5)
  ret i32 %6
}

; Function Attrs: inlinehint mustprogress uwtable
define linkonce_odr noundef i32 @_ZNK5Ipopt9SymMatrix3DimEv(ptr noundef nonnull align 8 dereferenceable(80) %0) #2 comdat align 2 {
  %2 = alloca ptr, align 8
  store ptr %0, ptr %2, align 8, !tbaa !33
  %3 = load ptr, ptr %2, align 8
  %4 = getelementptr inbounds nuw %"class.Ipopt::SymMatrix", ptr %3, i32 0, i32 1
  %5 = load ptr, ptr %4, align 8, !tbaa !36
  %6 = call noundef i32 @_ZNK5Ipopt14SymMatrixSpace3DimEv(ptr noundef nonnull align 8 dereferenceable(20) %5)
  ret i32 %6
}

; Function Attrs: mustprogress nounwind uwtable
define available_externally noundef ptr @_ZNKSt7__cxx1112basic_stringIcSt11char_traitsIcESaIcEE5c_strEv(ptr noundef nonnull align 8 dereferenceable(32) %0) #5 align 2 personality ptr @__gxx_personality_v0 {
  %2 = alloca ptr, align 8
  store ptr %0, ptr %2, align 8, !tbaa !99
  %3 = load ptr, ptr %2, align 8
  %4 = invoke noundef ptr @_ZNKSt7__cxx1112basic_stringIcSt11char_traitsIcESaIcEE7_M_dataEv(ptr noundef nonnull align 8 dereferenceable(32) %3)
          to label %5 unwind label %6

5:                                                ; preds = %1
  ret ptr %4

6:                                                ; preds = %1
  %7 = landingpad { ptr, i32 }
          catch ptr null
  %8 = extractvalue { ptr, i32 } %7, 0
  call void @__clang_call_terminate(ptr %8) #19
  unreachable
}

; Function Attrs: mustprogress uwtable
define void @_ZNK5Ipopt14DenseSymMatrix9PrintImplERKNS_10JournalistENS_13EJournalLevelENS_16EJournalCategoryERKNSt7__cxx1112basic_stringIcSt11char_traitsIcESaIcEEEiSD_(ptr noundef nonnull align 8 dereferenceable(97) %0, ptr noundef nonnull align 8 dereferenceable(40) %1, i32 noundef %2, i32 noundef %3, ptr noundef nonnull align 8 dereferenceable(32) %4, i32 noundef %5, ptr noundef nonnull align 8 dereferenceable(32) %6) unnamed_addr #1 align 2 {
  %8 = alloca ptr, align 8
  %9 = alloca ptr, align 8
  %10 = alloca i32, align 4
  %11 = alloca i32, align 4
  %12 = alloca ptr, align 8
  %13 = alloca i32, align 4
  %14 = alloca ptr, align 8
  %15 = alloca i32, align 4
  %16 = alloca i32, align 4
  %17 = alloca i32, align 4
  store ptr %0, ptr %8, align 8, !tbaa !3
  store ptr %1, ptr %9, align 8, !tbaa !93
  store i32 %2, ptr %10, align 4, !tbaa !95
  store i32 %3, ptr %11, align 4, !tbaa !97
  store ptr %4, ptr %12, align 8, !tbaa !99
  store i32 %5, ptr %13, align 4, !tbaa !57
  store ptr %6, ptr %14, align 8, !tbaa !99
  %18 = load ptr, ptr %8, align 8
  %19 = load ptr, ptr %9, align 8, !tbaa !93
  %20 = load i32, ptr %10, align 4, !tbaa !95
  %21 = load i32, ptr %11, align 4, !tbaa !97
  %22 = load ptr, ptr %19, align 8, !tbaa !10
  %23 = getelementptr inbounds ptr, ptr %22, i64 2
  %24 = load ptr, ptr %23, align 8
  call void (ptr, i32, i32, ptr, ...) %24(ptr noundef nonnull align 8 dereferenceable(40) %19, i32 noundef %20, i32 noundef %21, ptr noundef @.str)
  %25 = load ptr, ptr %9, align 8, !tbaa !93
  %26 = load i32, ptr %10, align 4, !tbaa !95
  %27 = load i32, ptr %11, align 4, !tbaa !97
  %28 = load i32, ptr %13, align 4, !tbaa !57
  %29 = load ptr, ptr %14, align 8, !tbaa !99
  %30 = call noundef ptr @_ZNKSt7__cxx1112basic_stringIcSt11char_traitsIcESaIcEE5c_strEv(ptr noundef nonnull align 8 dereferenceable(32) %29) #17
  %31 = load ptr, ptr %12, align 8, !tbaa !99
  %32 = call noundef ptr @_ZNKSt7__cxx1112basic_stringIcSt11char_traitsIcESaIcEE5c_strEv(ptr noundef nonnull align 8 dereferenceable(32) %31) #17
  %33 = call noundef i32 @_ZNK5Ipopt9SymMatrix3DimEv(ptr noundef nonnull align 8 dereferenceable(80) %18)
  %34 = load ptr, ptr %25, align 8, !tbaa !10
  %35 = getelementptr inbounds ptr, ptr %34, i64 4
  %36 = load ptr, ptr %35, align 8
  call void (ptr, i32, i32, i32, ptr, ...) %36(ptr noundef nonnull align 8 dereferenceable(40) %25, i32 noundef %26, i32 noundef %27, i32 noundef %28, ptr noundef @.str.1, ptr noundef %30, ptr noundef %32, i32 noundef %33)
  %37 = getelementptr inbounds nuw %"class.Ipopt::DenseSymMatrix", ptr %18, i32 0, i32 3
  %38 = load i8, ptr %37, align 8, !tbaa !32, !range !54, !noundef !55
  %39 = trunc i8 %38 to i1
  br i1 %39, label %40, label %85

40:                                               ; preds = %7
  call void @llvm.lifetime.start.p0(i64 4, ptr %15) #17
  store i32 0, ptr %15, align 4, !tbaa !57
  br label %41

41:                                               ; preds = %81, %40
  %42 = load i32, ptr %15, align 4, !tbaa !57
  %43 = call noundef i32 @_ZNK5Ipopt6Matrix5NColsEv(ptr noundef nonnull align 8 dereferenceable(69) %18)
  %44 = icmp slt i32 %42, %43
  br i1 %44, label %46, label %45

45:                                               ; preds = %41
  store i32 2, ptr %16, align 4
  call void @llvm.lifetime.end.p0(i64 4, ptr %15) #17
  br label %84

46:                                               ; preds = %41
  call void @llvm.lifetime.start.p0(i64 4, ptr %17) #17
  %47 = load i32, ptr %15, align 4, !tbaa !57
  store i32 %47, ptr %17, align 4, !tbaa !57
  br label %48

48:                                               ; preds = %77, %46
  %49 = load i32, ptr %17, align 4, !tbaa !57
  %50 = call noundef i32 @_ZNK5Ipopt6Matrix5NRowsEv(ptr noundef nonnull align 8 dereferenceable(69) %18)
  %51 = icmp slt i32 %49, %50
  br i1 %51, label %53, label %52

52:                                               ; preds = %48
  store i32 5, ptr %16, align 4
  call void @llvm.lifetime.end.p0(i64 4, ptr %17) #17
  br label %80

53:                                               ; preds = %48
  %54 = load ptr, ptr %9, align 8, !tbaa !93
  %55 = load i32, ptr %10, align 4, !tbaa !95
  %56 = load i32, ptr %11, align 4, !tbaa !97
  %57 = load i32, ptr %13, align 4, !tbaa !57
  %58 = load ptr, ptr %14, align 8, !tbaa !99
  %59 = call noundef ptr @_ZNKSt7__cxx1112basic_stringIcSt11char_traitsIcESaIcEE5c_strEv(ptr noundef nonnull align 8 dereferenceable(32) %58) #17
  %60 = load ptr, ptr %12, align 8, !tbaa !99
  %61 = call noundef ptr @_ZNKSt7__cxx1112basic_stringIcSt11char_traitsIcESaIcEE5c_strEv(ptr noundef nonnull align 8 dereferenceable(32) %60) #17
  %62 = load i32, ptr %17, align 4, !tbaa !57
  %63 = load i32, ptr %15, align 4, !tbaa !57
  %64 = getelementptr inbounds nuw %"class.Ipopt::DenseSymMatrix", ptr %18, i32 0, i32 2
  %65 = load ptr, ptr %64, align 8, !tbaa !31
  %66 = load i32, ptr %17, align 4, !tbaa !57
  %67 = call noundef i32 @_ZNK5Ipopt6Matrix5NRowsEv(ptr noundef nonnull align 8 dereferenceable(69) %18)
  %68 = load i32, ptr %15, align 4, !tbaa !57
  %69 = mul nsw i32 %67, %68
  %70 = add nsw i32 %66, %69
  %71 = sext i32 %70 to i64
  %72 = getelementptr inbounds double, ptr %65, i64 %71
  %73 = load double, ptr %72, align 8, !tbaa !39
  %74 = load ptr, ptr %54, align 8, !tbaa !10
  %75 = getelementptr inbounds ptr, ptr %74, i64 4
  %76 = load ptr, ptr %75, align 8
  call void (ptr, i32, i32, i32, ptr, ...) %76(ptr noundef nonnull align 8 dereferenceable(40) %54, i32 noundef %55, i32 noundef %56, i32 noundef %57, ptr noundef @.str.2, ptr noundef %59, ptr noundef %61, i32 noundef %62, i32 noundef %63, double noundef %73)
  br label %77

77:                                               ; preds = %53
  %78 = load i32, ptr %17, align 4, !tbaa !57
  %79 = add nsw i32 %78, 1
  store i32 %79, ptr %17, align 4, !tbaa !57
  br label %48, !llvm.loop !101

80:                                               ; preds = %52
  br label %81

81:                                               ; preds = %80
  %82 = load i32, ptr %15, align 4, !tbaa !57
  %83 = add nsw i32 %82, 1
  store i32 %83, ptr %15, align 4, !tbaa !57
  br label %41, !llvm.loop !102

84:                                               ; preds = %45
  br label %93

85:                                               ; preds = %7
  %86 = load ptr, ptr %9, align 8, !tbaa !93
  %87 = load i32, ptr %10, align 4, !tbaa !95
  %88 = load i32, ptr %11, align 4, !tbaa !97
  %89 = load i32, ptr %13, align 4, !tbaa !57
  %90 = load ptr, ptr %86, align 8, !tbaa !10
  %91 = getelementptr inbounds ptr, ptr %90, i64 4
  %92 = load ptr, ptr %91, align 8
  call void (ptr, i32, i32, i32, ptr, ...) %92(ptr noundef nonnull align 8 dereferenceable(40) %86, i32 noundef %87, i32 noundef %88, i32 noundef %89, ptr noundef @.str.3)
  br label %93

93:                                               ; preds = %85, %84
  ret void
}