; Function Attrs: mustprogress uwtable
define void @_ZNK5Ipopt14DenseSymMatrix9PrintImplERKNS_10JournalistENS_13EJournalLevelENS_16EJournalCategoryERKNSt7__cxx1112basic_stringIcSt11char_traitsIcESaIcEEEiSD_(ptr noundef nonnull readonly align 8 captures(none) dereferenceable(97) %0, ptr noundef nonnull align 8 dereferenceable(40) %1, i32 noundef %2, i32 noundef %3, ptr noundef nonnull readonly align 8 captures(none) dereferenceable(32) %4, i32 noundef %5, ptr noundef nonnull readonly align 8 captures(none) dereferenceable(32) %6) unnamed_addr #1 align 2 personality ptr @__gxx_personality_v0 {
  %8 = load ptr, ptr %1, align 8, !tbaa !8
  %9 = getelementptr inbounds nuw i8, ptr %8, i64 16
  %10 = load ptr, ptr %9, align 8
  tail call void (ptr, i32, i32, ptr, ...) %10(ptr noundef nonnull align 8 dereferenceable(40) %1, i32 noundef %2, i32 noundef %3, ptr noundef nonnull @.str)
  %11 = load ptr, ptr %6, align 8, !tbaa !115
  %12 = load ptr, ptr %4, align 8, !tbaa !115
  %13 = getelementptr inbounds nuw i8, ptr %0, i64 72
  %14 = load ptr, ptr %13, align 8, !tbaa !25
  %15 = getelementptr inbounds nuw i8, ptr %14, i64 12
  %16 = load i32, ptr %15, align 4, !tbaa !34
  %17 = load ptr, ptr %1, align 8, !tbaa !8
  %18 = getelementptr inbounds nuw i8, ptr %17, i64 32
  %19 = load ptr, ptr %18, align 8
  tail call void (ptr, i32, i32, i32, ptr, ...) %19(ptr noundef nonnull align 8 dereferenceable(40) %1, i32 noundef %2, i32 noundef %3, i32 noundef %5, ptr noundef nonnull @.str.1, ptr noundef %11, ptr noundef %12, i32 noundef %16)
  %20 = getelementptr inbounds nuw i8, ptr %0, i64 96
  %21 = load i8, ptr %20, align 8, !tbaa !36, !range !47, !noundef !48
  %22 = trunc nuw i8 %21 to i1
  br i1 %22, label %.preheader29, label %55

.preheader29:                                     ; preds = %7
  %23 = getelementptr inbounds nuw i8, ptr %0, i64 56
  %24 = load ptr, ptr %23, align 8, !tbaa !10
  %25 = getelementptr inbounds nuw i8, ptr %24, i64 16
  %26 = load i32, ptr %25, align 8, !tbaa !32
  %27 = icmp sgt i32 %26, 0
  br i1 %27, label %.preheader.lr.ph, label %.loopexit

.preheader.lr.ph:                                 ; preds = %.preheader29
  %28 = getelementptr inbounds nuw i8, ptr %0, i64 88
  br label %.preheader

.preheader:                                       ; preds = %.preheader.lr.ph, %._crit_edge
  %29 = phi ptr [ %24, %.preheader.lr.ph ], [ %33, %._crit_edge ]
  %.02831 = phi i32 [ 0, %.preheader.lr.ph ], [ %34, %._crit_edge ]
  %30 = getelementptr inbounds nuw i8, ptr %29, i64 12
  %31 = load i32, ptr %30, align 4, !tbaa !34
  %32 = icmp slt i32 %.02831, %31
  br i1 %32, label %.lr.ph, label %._crit_edge

._crit_edge:                                      ; preds = %.lr.ph, %.preheader
  %33 = phi ptr [ %29, %.preheader ], [ %51, %.lr.ph ]
  %34 = add nuw nsw i32 %.02831, 1
  %35 = getelementptr inbounds nuw i8, ptr %33, i64 16
  %36 = load i32, ptr %35, align 8, !tbaa !32
  %37 = icmp slt i32 %34, %36
  br i1 %37, label %.preheader, label %.loopexit, !llvm.loop !120

.lr.ph:                                           ; preds = %.preheader, %.lr.ph
  %38 = phi i32 [ %53, %.lr.ph ], [ %31, %.preheader ]
  %.030 = phi i32 [ %50, %.lr.ph ], [ %.02831, %.preheader ]
  %39 = load ptr, ptr %6, align 8, !tbaa !115
  %40 = load ptr, ptr %4, align 8, !tbaa !115
  %41 = load ptr, ptr %28, align 8, !tbaa !35
  %42 = mul nsw i32 %38, %.02831
  %43 = add nsw i32 %42, %.030
  %44 = sext i32 %43 to i64
  %45 = getelementptr inbounds double, ptr %41, i64 %44
  %46 = load double, ptr %45, align 8, !tbaa !55
  %47 = load ptr, ptr %1, align 8, !tbaa !8
  %48 = getelementptr inbounds nuw i8, ptr %47, i64 32
  %49 = load ptr, ptr %48, align 8
  tail call void (ptr, i32, i32, i32, ptr, ...) %49(ptr noundef nonnull align 8 dereferenceable(40) %1, i32 noundef %2, i32 noundef %3, i32 noundef %5, ptr noundef nonnull @.str.2, ptr noundef %39, ptr noundef %40, i32 noundef %.030, i32 noundef %.02831, double noundef %46)
  %50 = add nuw nsw i32 %.030, 1
  %51 = load ptr, ptr %23, align 8, !tbaa !10
  %52 = getelementptr inbounds nuw i8, ptr %51, i64 12
  %53 = load i32, ptr %52, align 4, !tbaa !34
  %54 = icmp slt i32 %50, %53
  br i1 %54, label %.lr.ph, label %._crit_edge, !llvm.loop !121

55:                                               ; preds = %7
  %56 = load ptr, ptr %1, align 8, !tbaa !8
  %57 = getelementptr inbounds nuw i8, ptr %56, i64 32
  %58 = load ptr, ptr %57, align 8
  tail call void (ptr, i32, i32, i32, ptr, ...) %58(ptr noundef nonnull align 8 dereferenceable(40) %1, i32 noundef %2, i32 noundef %3, i32 noundef %5, ptr noundef nonnull @.str.3)
  br label %.loopexit

.loopexit:                                        ; preds = %._crit_edge, %.preheader29, %55
  ret void
}